target datalayout = "e-m:e-p270:32:32-p271:32:32-p272:64:64-i64:64-i128:128-f80:128-n8:16:32:64-S128"
target triple = "x86_64-pc-linux-gnu"

%struct.darktable_t = type { %struct.dt_codepath_t, i32, i32, ptr, ptr, ptr, ptr, ptr, ptr, ptr, ptr, ptr, ptr, ptr, ptr, ptr, ptr, ptr, ptr, ptr, ptr, ptr, ptr, ptr, ptr, ptr, ptr, ptr, ptr, ptr, [64 x %struct.dt_pthread_mutex_t], %struct.dt_pthread_mutex_t, %struct.dt_pthread_mutex_t, %struct.dt_pthread_mutex_t, %struct.dt_pthread_mutex_t, %struct.dt_pthread_mutex_t, ptr, ptr, ptr, ptr, ptr, ptr, ptr, ptr, ptr, ptr, ptr, ptr, ptr, %struct.dt_lua_state_t, ptr, double, ptr, i32, [47 x i32], i32, i32, ptr, ptr, %struct.dt_sys_resources_t, %struct.dt_backthumb_t, %struct.dt_gimp_t }
%struct.dt_codepath_t = type { i8, [3 x i8] }
%struct.dt_pthread_mutex_t = type { %union.pthread_mutex_t }
%union.pthread_mutex_t = type { %struct.__pthread_mutex_s }
%struct.__pthread_mutex_s = type { i32, i32, i32, i32, i32, i16, i16, %struct.__pthread_internal_list }
%struct.__pthread_internal_list = type { ptr, ptr }
%struct.dt_lua_state_t = type { i32 }
%struct.dt_sys_resources_t = type { i64, i64, ptr, ptr, i32 }
%struct.dt_backthumb_t = type { double, double, i32, i32, i32, i32 }
%struct.dt_gimp_t = type { i32, ptr, ptr, i32, i32 }
%struct.dt_dev_pixelpipe_t = type { %struct.dt_dev_pixelpipe_cache_t, i32, i64, ptr, i32, i32, float, i32, i32, [12 x i8], %struct.dt_iop_buffer_dsc_t, ptr, ptr, ptr, ptr, i32, i32, i32, i32, ptr, i64, i32, i32, float, float, float, i64, %struct.dt_pthread_mutex_t, %struct.dt_pthread_mutex_t, %struct.dt_pthread_mutex_t, i32, i32, i32, %struct.dt_dev_detail_mask_t, i32, i32, i32, i32, i32, i32, i32, i32, i32, i32, i32, i32, i32, i32, [8 x i8], %struct.dt_image_t, i32, ptr, i32, ptr, ptr, ptr, i32, ptr, i64, [8 x i8] }
%struct.dt_dev_pixelpipe_cache_t = type { i32, i64, i64, ptr, ptr, ptr, ptr, ptr, ptr, i64, i32, i64, i64, i32, i32, i32 }
%struct.dt_iop_buffer_dsc_t = type { i32, i32, i32, [6 x [6 x i8]], %struct.anon, [12 x i8], %struct.anon.0, [4 x float], i32, [12 x i8] }
%struct.anon = type { i16, i16 }
%struct.anon.0 = type { i32, [12 x i8], [4 x float] }
%struct.dt_dev_detail_mask_t = type { %struct.dt_iop_roi_t, i64, ptr }
%struct.dt_iop_roi_t = type { i32, i32, i32, i32, float }
%struct.dt_image_t = type { i32, i32, float, float, float, float, float, float, float, [64 x i8], [64 x i8], [128 x i8], [64 x i8], [64 x i8], [64 x i8], [64 x i8], i64, i32, %union.dt_image_correction_data_t, [64 x i8], [64 x i8], [64 x i8], [128 x i8], i32, [256 x i8], i32, i32, i32, i32, i32, i32, i32, i32, i32, i32, float, i32, i32, i32, i32, i32, i32, i64, i64, i64, i64, i32, [12 x i8], %struct.dt_iop_buffer_dsc_t, [9 x float], ptr, i32, i32, %struct.dt_image_raw_parameters_t, %struct.dt_image_geoloc_t, %struct._color_harmony_t, i16, [4 x i16], i32, i32, float, float, [4 x float], [4 x [3 x float]], [4 x float], ptr, ptr, i32, i32, [8 x i8] }
%union.dt_image_correction_data_t = type { %struct.anon.2 }
%struct.anon.2 = type { i32, float, [11 x float], [11 x float], [11 x float], [11 x float], [11 x float] }
%struct.dt_image_raw_parameters_t = type { i32 }
%struct.dt_image_geoloc_t = type { double, double, double }
%struct._color_harmony_t = type { i32, i32, i32 }
%struct._GList = type { ptr, ptr, ptr }
%struct.dt_dev_pixelpipe_iop_t = type { ptr, ptr, ptr, ptr, i32, i32, %struct.dt_dev_histogram_collection_params_t, ptr, %struct.dt_dev_histogram_stats_t, [4 x i32], float, i32, i32, i64, i32, i32, %struct.dt_iop_roi_t, %struct.dt_iop_roi_t, %struct.dt_iop_roi_t, %struct.dt_iop_roi_t, i32, i32, %struct.dt_iop_buffer_dsc_t, %struct.dt_iop_buffer_dsc_t, ptr, [8 x i8] }
%struct.dt_dev_histogram_collection_params_t = type { ptr, i32 }
%struct.dt_dev_histogram_stats_t = type { i32, i64, i32, i32 }
%struct.dt_iop_module_t = type { i32, ptr, ptr, ptr, ptr, ptr, ptr, ptr, ptr, ptr, ptr, ptr, ptr, ptr, ptr, ptr, ptr, ptr, ptr, ptr, ptr, ptr, ptr, ptr, ptr, ptr, ptr, ptr, ptr, ptr, ptr, ptr, ptr, ptr, ptr, ptr, ptr, ptr, ptr, ptr, ptr, ptr, ptr, ptr, ptr, ptr, ptr, ptr, ptr, ptr, ptr, ptr, ptr, ptr, ptr, ptr, ptr, [20 x i8], i32, i32, i32, i32, i32, i32, i32, [8 x i8], [4 x float], [4 x float], [4 x float], [4 x float], [4 x float], [4 x float], ptr, %struct.dt_dev_histogram_stats_t, [4 x i32], i32, i32, ptr, i32, i32, ptr, ptr, i32, ptr, %struct.dt_pthread_mutex_t, ptr, ptr, ptr, ptr, %struct.anon.5, ptr, ptr, ptr, ptr, ptr, ptr, ptr, i32, ptr, ptr, ptr, ptr, ptr, ptr, ptr, i32, ptr, i32, [128 x i8], i32, ptr, ptr, i32, [12 x i8] }
%struct.anon.5 = type { %struct.anon.6, %struct.anon.7 }
%struct.anon.6 = type { ptr, ptr }
%struct.anon.7 = type { ptr, i32 }

@darktable = external global %struct.darktable_t, align 8
@.str.58 = private unnamed_addr constant [2 x i8] c" \00", align 1
@.str.73 = private unnamed_addr constant [7 x i8] c" ID=%i\00", align 1
@.str.81 = private unnamed_addr constant [15 x i8] c"get dimensions\00", align 1
@.str.82 = private unnamed_addr constant [15 x i8] c"modify roi OUT\00", align 1

; Function Attrs: inlinehint nounwind uwtable
define internal i32 @dt_pthread_mutex_unlock(ptr noundef %0) #6 {
  %2 = alloca ptr, align 8
  store ptr %0, ptr %2, align 8, !tbaa !190
  %3 = load ptr, ptr %2, align 8, !tbaa !190
  %4 = getelementptr inbounds nuw %struct.dt_pthread_mutex_t, ptr %3, i32 0, i32 0
  %5 = call i32 @pthread_mutex_unlock(ptr noundef %4) #17
  ret i32 %5
}

; Function Attrs: inlinehint nounwind uwtable
define internal i32 @_skip_piece_on_tags(ptr noundef %0) #6 {
  %2 = alloca i32, align 4
  %3 = alloca ptr, align 8
  store ptr %0, ptr %3, align 8, !tbaa !94
  %4 = load ptr, ptr %3, align 8, !tbaa !94
  %5 = getelementptr inbounds nuw %struct.dt_dev_pixelpipe_iop_t, ptr %4, i32 0, i32 4
  %6 = load i32, ptr %5, align 16, !tbaa !227
  %7 = icmp ne i32 %6, 0
  br i1 %7, label %8, label %15

8:                                                ; preds = %1
  %9 = load ptr, ptr %3, align 8, !tbaa !94
  %10 = getelementptr inbounds nuw %struct.dt_dev_pixelpipe_iop_t, ptr %9, i32 0, i32 0
  %11 = load ptr, ptr %10, align 16, !tbaa !96
  %12 = getelementptr inbounds nuw %struct.dt_iop_module_t, ptr %11, i32 0, i32 59
  %13 = load i32, ptr %12, align 16, !tbaa !104
  %14 = icmp eq i32 %13, 2147483647
  br i1 %14, label %15, label %16

15:                                               ; preds = %8, %1
  store i32 1, ptr %2, align 4
  br label %38

16:                                               ; preds = %8
  %17 = load ptr, ptr %3, align 8, !tbaa !94
  %18 = getelementptr inbounds nuw %struct.dt_dev_pixelpipe_iop_t, ptr %17, i32 0, i32 0
  %19 = load ptr, ptr %18, align 16, !tbaa !96
  %20 = getelementptr inbounds nuw %struct.dt_iop_module_t, ptr %19, i32 0, i32 77
  %21 = load ptr, ptr %20, align 8, !tbaa !114
  %22 = load ptr, ptr %3, align 8, !tbaa !94
  %23 = getelementptr inbounds nuw %struct.dt_dev_pixelpipe_iop_t, ptr %22, i32 0, i32 0
  %24 = load ptr, ptr %23, align 16, !tbaa !96
  %25 = call i32 @dt_iop_module_is_skipped(ptr noundef %21, ptr noundef %24)
  %26 = icmp ne i32 %25, 0
  br i1 %26, label %27, label %35

27:                                               ; preds = %16
  %28 = load ptr, ptr %3, align 8, !tbaa !94
  %29 = getelementptr inbounds nuw %struct.dt_dev_pixelpipe_iop_t, ptr %28, i32 0, i32 1
  %30 = load ptr, ptr %29, align 8, !tbaa !238
  %31 = getelementptr inbounds nuw %struct.dt_dev_pixelpipe_t, ptr %30, i32 0, i32 45
  %32 = load i32, ptr %31, align 4, !tbaa !34
  %33 = and i32 %32, 6
  %34 = icmp ne i32 %33, 0
  br label %35

35:                                               ; preds = %27, %16
  %36 = phi i1 [ false, %16 ], [ %34, %27 ]
  %37 = zext i1 %36 to i32
  store i32 %37, ptr %2, align 4
  br label %38

38:                                               ; preds = %35, %15
  %39 = load i32, ptr %2, align 4
  ret i32 %39
}

; Function Attrs: inlinehint nounwind uwtable
define internal i32 @dt_pthread_mutex_lock(ptr noundef %0) #6 {
  %2 = alloca ptr, align 8
  store ptr %0, ptr %2, align 8, !tbaa !190
  %3 = load ptr, ptr %2, align 8, !tbaa !190
  %4 = getelementptr inbounds nuw %struct.dt_pthread_mutex_t, ptr %3, i32 0, i32 0
  %5 = call i32 @pthread_mutex_lock(ptr noundef %4) #17
  ret i32 %5
}

; Function Attrs: nounwind uwtable
define void @dt_dev_pixelpipe_get_dimensions(ptr noundef %0, ptr noundef %1, i32 noundef %2, i32 noundef %3, ptr noundef %4, ptr noundef %5) #0 {
  %7 = alloca ptr, align 8
  %8 = alloca ptr, align 8
  %9 = alloca i32, align 4
  %10 = alloca i32, align 4
  %11 = alloca ptr, align 8
  %12 = alloca ptr, align 8
  %13 = alloca %struct.dt_iop_roi_t, align 4
  %14 = alloca %struct.dt_iop_roi_t, align 4
  %15 = alloca ptr, align 8
  %16 = alloca ptr, align 8
  %17 = alloca ptr, align 8
  %18 = alloca ptr, align 8
  store ptr %0, ptr %7, align 8, !tbaa !6
  store ptr %1, ptr %8, align 8, !tbaa !192
  store i32 %2, ptr %9, align 4, !tbaa !11
  store i32 %3, ptr %10, align 4, !tbaa !11
  store ptr %4, ptr %11, align 8, !tbaa !270
  store ptr %5, ptr %12, align 8, !tbaa !270
  %19 = load ptr, ptr %7, align 8, !tbaa !6
  %20 = getelementptr inbounds nuw %struct.dt_dev_pixelpipe_t, ptr %19, i32 0, i32 29
  %21 = call i32 @dt_pthread_mutex_lock(ptr noundef %20)
  call void @llvm.lifetime.start.p0(i64 20, ptr %13) #17
  %22 = getelementptr inbounds nuw %struct.dt_iop_roi_t, ptr %13, i32 0, i32 0
  store i32 0, ptr %22, align 4, !tbaa !140
  %23 = getelementptr inbounds nuw %struct.dt_iop_roi_t, ptr %13, i32 0, i32 1
  store i32 0, ptr %23, align 4, !tbaa !141
  %24 = getelementptr inbounds nuw %struct.dt_iop_roi_t, ptr %13, i32 0, i32 2
  %25 = load i32, ptr %9, align 4, !tbaa !11
  store i32 %25, ptr %24, align 4, !tbaa !142
  %26 = getelementptr inbounds nuw %struct.dt_iop_roi_t, ptr %13, i32 0, i32 3
  %27 = load i32, ptr %10, align 4, !tbaa !11
  store i32 %27, ptr %26, align 4, !tbaa !143
  %28 = getelementptr inbounds nuw %struct.dt_iop_roi_t, ptr %13, i32 0, i32 4
  store float 1.000000e+00, ptr %28, align 4, !tbaa !144
  br label %29

29:                                               ; preds = %6
  %30 = load i32, ptr getelementptr inbounds nuw (%struct.darktable_t, ptr @darktable, i32 0, i32 2), align 8, !tbaa !54
  %31 = and i32 33554432, %30
  %32 = icmp ne i32 %31, 0
  br i1 %32, label %33, label %44

33:                                               ; preds = %29
  %34 = load i32, ptr getelementptr inbounds nuw (%struct.darktable_t, ptr @darktable, i32 0, i32 2), align 8, !tbaa !54
  %35 = xor i32 %34, -1
  %36 = and i32 0, %35
  %37 = icmp ne i32 %36, 0
  br i1 %37, label %44, label %38

38:                                               ; preds = %33
  %39 = load ptr, ptr %7, align 8, !tbaa !6
  %40 = load ptr, ptr %7, align 8, !tbaa !6
  %41 = getelementptr inbounds nuw %struct.dt_dev_pixelpipe_t, ptr %40, i32 0, i32 49
  %42 = getelementptr inbounds nuw %struct.dt_image_t, ptr %41, i32 0, i32 40
  %43 = load i32, ptr %42, align 8, !tbaa !271
  call void (ptr, ptr, ptr, i32, ptr, ptr, ptr, ...) @dt_print_pipe_ext(ptr noundef @.str.81, ptr noundef %39, ptr noundef null, i32 noundef -2, ptr noundef %13, ptr noundef null, ptr noundef @.str.73, i32 noundef %43)
  br label %44

44:                                               ; preds = %38, %33, %29
  br label %45

45:                                               ; preds = %44
  br label %46

46:                                               ; preds = %45
  call void @llvm.lifetime.start.p0(i64 20, ptr %14) #17
  call void @llvm.lifetime.start.p0(i64 8, ptr %15) #17
  %47 = load ptr, ptr %7, align 8, !tbaa !6
  %48 = getelementptr inbounds nuw %struct.dt_dev_pixelpipe_t, ptr %47, i32 0, i32 53
  %49 = load ptr, ptr %48, align 8, !tbaa !179
  store ptr %49, ptr %15, align 8, !tbaa !91
  call void @llvm.lifetime.start.p0(i64 8, ptr %16) #17
  %50 = load ptr, ptr %7, align 8, !tbaa !6
  %51 = getelementptr inbounds nuw %struct.dt_dev_pixelpipe_t, ptr %50, i32 0, i32 14
  %52 = load ptr, ptr %51, align 8, !tbaa !90
  store ptr %52, ptr %16, align 8, !tbaa !91
  br label %53

53:                                               ; preds = %117, %46
  %54 = load ptr, ptr %15, align 8, !tbaa !91
  %55 = icmp ne ptr %54, null
  br i1 %55, label %56, label %119

56:                                               ; preds = %53
  call void @llvm.lifetime.start.p0(i64 8, ptr %17) #17
  %57 = load ptr, ptr %15, align 8, !tbaa !91
  %58 = getelementptr inbounds nuw %struct._GList, ptr %57, i32 0, i32 0
  %59 = load ptr, ptr %58, align 8, !tbaa !92
  store ptr %59, ptr %17, align 8, !tbaa !103
  call void @llvm.lifetime.start.p0(i64 8, ptr %18) #17
  %60 = load ptr, ptr %16, align 8, !tbaa !91
  %61 = getelementptr inbounds nuw %struct._GList, ptr %60, i32 0, i32 0
  %62 = load ptr, ptr %61, align 8, !tbaa !92
  store ptr %62, ptr %18, align 8, !tbaa !94
  %63 = load ptr, ptr %18, align 8, !tbaa !94
  %64 = getelementptr inbounds nuw %struct.dt_dev_pixelpipe_iop_t, ptr %63, i32 0, i32 16
  call void @llvm.memcpy.p0.p0.i64(ptr align 8 %64, ptr align 4 %13, i64 20, i1 false), !tbaa.struct !272
  %65 = load ptr, ptr %18, align 8, !tbaa !94
  %66 = call i32 @_skip_piece_on_tags(ptr noundef %65)
  %67 = icmp ne i32 %66, 0
  br i1 %67, label %97, label %68

68:                                               ; preds = %56
  %69 = load ptr, ptr %17, align 8, !tbaa !103
  %70 = getelementptr inbounds nuw %struct.dt_iop_module_t, ptr %69, i32 0, i32 42
  %71 = load ptr, ptr %70, align 16, !tbaa !273
  %72 = load ptr, ptr %17, align 8, !tbaa !103
  %73 = load ptr, ptr %18, align 8, !tbaa !94
  call void %71(ptr noundef %72, ptr noundef %73, ptr noundef %14, ptr noundef %13)
  %74 = load i32, ptr getelementptr inbounds nuw (%struct.darktable_t, ptr @darktable, i32 0, i32 2), align 8, !tbaa !54
  %75 = and i32 %74, 33554432
  %76 = icmp ne i32 %75, 0
  br i1 %76, label %77, label %96

77:                                               ; preds = %68
  %78 = call i32 @memcmp(ptr noundef %14, ptr noundef %13, i64 noundef 20) #20
  %79 = icmp ne i32 %78, 0
  br i1 %79, label %80, label %96

80:                                               ; preds = %77
  br label %81

81:                                               ; preds = %80
  %82 = load i32, ptr getelementptr inbounds nuw (%struct.darktable_t, ptr @darktable, i32 0, i32 2), align 8, !tbaa !54
  %83 = and i32 33554432, %82
  %84 = icmp ne i32 %83, 0
  br i1 %84, label %85, label %93

85:                                               ; preds = %81
  %86 = load i32, ptr getelementptr inbounds nuw (%struct.darktable_t, ptr @darktable, i32 0, i32 2), align 8, !tbaa !54
  %87 = xor i32 %86, -1
  %88 = and i32 0, %87
  %89 = icmp ne i32 %88, 0
  br i1 %89, label %93, label %90

90:                                               ; preds = %85
  %91 = load ptr, ptr %7, align 8, !tbaa !6
  %92 = load ptr, ptr %17, align 8, !tbaa !103
  call void (ptr, ptr, ptr, i32, ptr, ptr, ptr, ...) @dt_print_pipe_ext(ptr noundef @.str.82, ptr noundef %91, ptr noundef %92, i32 noundef -2, ptr noundef %13, ptr noundef %14, ptr noundef @.str.58)
  br label %93

93:                                               ; preds = %90, %85, %81
  br label %94

94:                                               ; preds = %93
  br label %95

95:                                               ; preds = %94
  br label %96

96:                                               ; preds = %95, %77, %68
  br label %98

97:                                               ; preds = %56
  call void @llvm.memcpy.p0.p0.i64(ptr align 4 %14, ptr align 4 %13, i64 20, i1 false), !tbaa.struct !272
  br label %98

98:                                               ; preds = %97, %96
  %99 = load ptr, ptr %18, align 8, !tbaa !94
  %100 = getelementptr inbounds nuw %struct.dt_dev_pixelpipe_iop_t, ptr %99, i32 0, i32 17
  call void @llvm.memcpy.p0.p0.i64(ptr align 4 %100, ptr align 4 %14, i64 20, i1 false), !tbaa.struct !272
  call void @llvm.memcpy.p0.p0.i64(ptr align 4 %13, ptr align 4 %14, i64 20, i1 false), !tbaa.struct !272
  %101 = load ptr, ptr %15, align 8, !tbaa !91
  %102 = icmp ne ptr %101, null
  br i1 %102, label %103, label %107

103:                                              ; preds = %98
  %104 = load ptr, ptr %15, align 8, !tbaa !91
  %105 = getelementptr inbounds nuw %struct._GList, ptr %104, i32 0, i32 1
  %106 = load ptr, ptr %105, align 8, !tbaa !129
  br label %108

107:                                              ; preds = %98
  br label %108

108:                                              ; preds = %107, %103
  %109 = phi ptr [ %106, %103 ], [ null, %107 ]
  store ptr %109, ptr %15, align 8, !tbaa !91
  %110 = load ptr, ptr %16, align 8, !tbaa !91
  %111 = icmp ne ptr %110, null
  br i1 %111, label %112, label %116

112:                                              ; preds = %108
  %113 = load ptr, ptr %16, align 8, !tbaa !91
  %114 = getelementptr inbounds nuw %struct._GList, ptr %113, i32 0, i32 1
  %115 = load ptr, ptr %114, align 8, !tbaa !129
  br label %117

116:                                              ; preds = %108
  br label %117

117:                                              ; preds = %116, %112
  %118 = phi ptr [ %115, %112 ], [ null, %116 ]
  store ptr %118, ptr %16, align 8, !tbaa !91
  call void @llvm.lifetime.end.p0(i64 8, ptr %18) #17
  call void @llvm.lifetime.end.p0(i64 8, ptr %17) #17
  br label %53

119:                                              ; preds = %53
  %120 = getelementptr inbounds nuw %struct.dt_iop_roi_t, ptr %14, i32 0, i32 2
  %121 = load i32, ptr %120, align 4, !tbaa !142
  %122 = load ptr, ptr %11, align 8, !tbaa !270
  store i32 %121, ptr %122, align 4, !tbaa !11
  %123 = getelementptr inbounds nuw %struct.dt_iop_roi_t, ptr %14, i32 0, i32 3
  %124 = load i32, ptr %123, align 4, !tbaa !143
  %125 = load ptr, ptr %12, align 8, !tbaa !270
  store i32 %124, ptr %125, align 4, !tbaa !11
  %126 = load ptr, ptr %7, align 8, !tbaa !6
  %127 = getelementptr inbounds nuw %struct.dt_dev_pixelpipe_t, ptr %126, i32 0, i32 29
  %128 = call i32 @dt_pthread_mutex_unlock(ptr noundef %127)
  call void @llvm.lifetime.end.p0(i64 8, ptr %16) #17
  call void @llvm.lifetime.end.p0(i64 8, ptr %15) #17
  call void @llvm.lifetime.end.p0(i64 20, ptr %14) #17
  call void @llvm.lifetime.end.p0(i64 20, ptr %13) #17
  ret void
}