; Function Attrs: nounwind uwtable
define void @dt_dev_pixelpipe_get_dimensions(ptr noundef %0, ptr readnone captures(none) %1, i32 noundef %2, i32 noundef %3, ptr noundef writeonly captures(none) %4, ptr noundef writeonly captures(none) %5) local_unnamed_addr #0 {
  %7 = alloca %struct.dt_iop_roi_t, align 4
  %8 = alloca %struct.dt_iop_roi_t, align 4
  %9 = getelementptr inbounds nuw i8, ptr %0, i64 480
  %10 = tail call i32 @pthread_mutex_lock(ptr noundef nonnull %9) #27
  call void @llvm.lifetime.start.p0(i64 20, ptr nonnull %7) #27
  store i32 0, ptr %7, align 4, !tbaa !128
  %11 = getelementptr inbounds nuw i8, ptr %7, i64 4
  store i32 0, ptr %11, align 4, !tbaa !129
  %12 = getelementptr inbounds nuw i8, ptr %7, i64 8
  store i32 %2, ptr %12, align 4, !tbaa !130
  %13 = getelementptr inbounds nuw i8, ptr %7, i64 12
  store i32 %3, ptr %13, align 4, !tbaa !131
  %14 = getelementptr inbounds nuw i8, ptr %7, i64 16
  store float 1.000000e+00, ptr %14, align 4, !tbaa !132
  %15 = load i32, ptr getelementptr inbounds nuw (i8, ptr @darktable, i64 8), align 8, !tbaa !48
  %16 = and i32 %15, 33554432
  %.not = icmp eq i32 %16, 0
  br i1 %.not, label %20, label %17

17:                                               ; preds = %6
  %18 = getelementptr inbounds nuw i8, ptr %0, i64 2072
  %19 = load i32, ptr %18, align 8, !tbaa !241
  call void (ptr, ptr, ptr, i32, ptr, ptr, ptr, ...) @dt_print_pipe_ext(ptr noundef nonnull @.str.81, ptr noundef nonnull %0, ptr noundef null, i32 noundef -2, ptr noundef nonnull %7, ptr noundef null, ptr noundef nonnull @.str.73, i32 noundef %19)
  br label %20

20:                                               ; preds = %17, %6
  call void @llvm.lifetime.start.p0(i64 20, ptr nonnull %8) #27
  %21 = getelementptr inbounds nuw i8, ptr %0, i64 2520
  %.035 = load ptr, ptr %21, align 8, !tbaa !85
  %.not2537 = icmp eq ptr %.035, null
  br i1 %.not2537, label %._crit_edge, label %.lr.ph.preheader

.lr.ph.preheader:                                 ; preds = %20
  %22 = getelementptr inbounds nuw i8, ptr %0, i64 328
  br label %.lr.ph

.lr.ph:                                           ; preds = %.lr.ph.preheader, %48
  %.02439.in = phi ptr [ %51, %48 ], [ %22, %.lr.ph.preheader ]
  %.038 = phi ptr [ %.0, %48 ], [ %.035, %.lr.ph.preheader ]
  %.02439 = load ptr, ptr %.02439.in, align 8, !tbaa !85
  %23 = load ptr, ptr %.038, align 8, !tbaa !86
  %24 = load ptr, ptr %.02439, align 8, !tbaa !86
  %25 = getelementptr inbounds nuw i8, ptr %24, i64 136
  call void @llvm.memcpy.p0.p0.i64(ptr noundef nonnull align 8 dereferenceable(20) %25, ptr noundef nonnull align 4 dereferenceable(20) %7, i64 20, i1 false), !tbaa.struct !242
  %26 = getelementptr inbounds nuw i8, ptr %24, i64 32
  %27 = load i32, ptr %26, align 16, !tbaa !202
  %.not.i = icmp eq i32 %27, 0
  br i1 %.not.i, label %_skip_piece_on_tags.exit.thread, label %28

28:                                               ; preds = %.lr.ph
  %29 = load ptr, ptr %24, align 16, !tbaa !88
  %30 = getelementptr inbounds nuw i8, ptr %29, i64 480
  %31 = load i32, ptr %30, align 16, !tbaa !96
  %32 = icmp eq i32 %31, 2147483647
  br i1 %32, label %_skip_piece_on_tags.exit.thread, label %33

33:                                               ; preds = %28
  %34 = getelementptr inbounds nuw i8, ptr %29, i64 664
  %35 = load ptr, ptr %34, align 8, !tbaa !106
  %36 = call i32 @dt_iop_module_is_skipped(ptr noundef %35, ptr noundef nonnull %29) #27
  %.not5.i = icmp eq i32 %36, 0
  br i1 %.not5.i, label %_skip_piece_on_tags.exit.thread31, label %_skip_piece_on_tags.exit

_skip_piece_on_tags.exit:                         ; preds = %33
  %37 = getelementptr inbounds nuw i8, ptr %24, i64 8
  %38 = load ptr, ptr %37, align 8, !tbaa !213
  %39 = getelementptr inbounds nuw i8, ptr %38, i64 620
  %40 = load i32, ptr %39, align 4, !tbaa !28
  %41 = and i32 %40, 6
  %.not34 = icmp eq i32 %41, 0
  br i1 %.not34, label %_skip_piece_on_tags.exit.thread31, label %_skip_piece_on_tags.exit.thread

_skip_piece_on_tags.exit.thread31:                ; preds = %33, %_skip_piece_on_tags.exit
  %42 = getelementptr inbounds nuw i8, ptr %23, i64 336
  %43 = load ptr, ptr %42, align 16, !tbaa !243
  call void %43(ptr noundef %23, ptr noundef nonnull %24, ptr noundef nonnull %8, ptr noundef nonnull %7) #27
  %44 = load i32, ptr getelementptr inbounds nuw (i8, ptr @darktable, i64 8), align 8, !tbaa !48
  %45 = and i32 %44, 33554432
  %.not27 = icmp eq i32 %45, 0
  br i1 %.not27, label %48, label %46

46:                                               ; preds = %_skip_piece_on_tags.exit.thread31
  %bcmp = call i32 @bcmp(ptr noundef nonnull dereferenceable(20) %8, ptr noundef nonnull dereferenceable(20) %7, i64 20)
  %.not28 = icmp eq i32 %bcmp, 0
  br i1 %.not28, label %48, label %47

47:                                               ; preds = %46
  call void (ptr, ptr, ptr, i32, ptr, ptr, ptr, ...) @dt_print_pipe_ext(ptr noundef nonnull @.str.82, ptr noundef %0, ptr noundef nonnull %23, i32 noundef -2, ptr noundef nonnull %7, ptr noundef nonnull %8, ptr noundef nonnull @.str.58)
  br label %48

_skip_piece_on_tags.exit.thread:                  ; preds = %.lr.ph, %28, %_skip_piece_on_tags.exit
  call void @llvm.memcpy.p0.p0.i64(ptr noundef nonnull align 4 dereferenceable(20) %8, ptr noundef nonnull align 4 dereferenceable(20) %7, i64 20, i1 false), !tbaa.struct !242
  br label %48

48:                                               ; preds = %_skip_piece_on_tags.exit.thread31, %46, %47, %_skip_piece_on_tags.exit.thread
  %49 = getelementptr inbounds nuw i8, ptr %24, i64 156
  call void @llvm.memcpy.p0.p0.i64(ptr noundef nonnull align 4 dereferenceable(20) %49, ptr noundef nonnull align 4 dereferenceable(20) %8, i64 20, i1 false), !tbaa.struct !242
  call void @llvm.memcpy.p0.p0.i64(ptr noundef nonnull align 4 dereferenceable(20) %7, ptr noundef nonnull align 4 dereferenceable(20) %8, i64 20, i1 false), !tbaa.struct !242
  %50 = getelementptr inbounds nuw i8, ptr %.038, i64 8
  %51 = getelementptr inbounds nuw i8, ptr %.02439, i64 8
  %.0 = load ptr, ptr %50, align 8, !tbaa !85
  %.not25 = icmp eq ptr %.0, null
  br i1 %.not25, label %._crit_edge.loopexit, label %.lr.ph

._crit_edge.loopexit:                             ; preds = %48
  %.phi.trans.insert = getelementptr inbounds nuw i8, ptr %8, i64 8
  %.pre = load i32, ptr %.phi.trans.insert, align 4, !tbaa !130
  %.phi.trans.insert40 = getelementptr inbounds nuw i8, ptr %8, i64 12
  %.pre41 = load i32, ptr %.phi.trans.insert40, align 4, !tbaa !131
  br label %._crit_edge

._crit_edge:                                      ; preds = %._crit_edge.loopexit, %20
  %52 = phi i32 [ %.pre41, %._crit_edge.loopexit ], [ undef, %20 ]
  %53 = phi i32 [ %.pre, %._crit_edge.loopexit ], [ undef, %20 ]
  store i32 %53, ptr %4, align 4, !tbaa !26
  store i32 %52, ptr %5, align 4, !tbaa !26
  %54 = call i32 @pthread_mutex_unlock(ptr noundef nonnull %9) #27
  call void @llvm.lifetime.end.p0(i64 20, ptr nonnull %8) #27
  call void @llvm.lifetime.end.p0(i64 20, ptr nonnull %7) #27
  ret void
}